; Function Attrs: mustprogress uwtable
define void @_ZN7rocksdb27WriteBatchWithIndexInternal27CheckAndGetImmutableOptionsEPNS_18ColumnFamilyHandleEPPKNS_16ImmutableOptionsE(ptr dead_on_unwind noalias writable sret(%"class.rocksdb::Status") align 8 %0, ptr noundef %1, ptr noundef writeonly captures(none) %2) local_unnamed_addr #4 align 2 personality ptr @__gxx_personality_v0 {
  %4 = alloca %"class.rocksdb::Slice", align 8
  %5 = alloca %"class.rocksdb::Slice", align 8
  %6 = alloca %"class.rocksdb::Slice", align 8
  %7 = alloca %"class.rocksdb::Slice", align 8
  %.not = icmp eq ptr %1, null
  br i1 %.not, label %8, label %11

8:                                                ; preds = %3
  call void @llvm.lifetime.start.p0(i64 16, ptr nonnull %4) #25
  store ptr @.str.47, ptr %4, align 8, !tbaa !104
  %9 = getelementptr inbounds nuw i8, ptr %4, i64 8
  store i64 28, ptr %9, align 8, !tbaa !144
  call void @llvm.lifetime.start.p0(i64 16, ptr nonnull %5) #25
  store ptr @.str, ptr %5, align 8, !tbaa !104
  %10 = getelementptr inbounds nuw i8, ptr %5, i64 8
  store i64 0, ptr %10, align 8, !tbaa !144
  call void @_ZN7rocksdb6StatusC2ENS0_4CodeENS0_7SubCodeERKNS_5SliceES5_NS0_8SeverityE(ptr noundef nonnull align 8 dereferenceable(16) %0, i8 noundef zeroext 4, i8 noundef zeroext 0, ptr noundef nonnull align 8 dereferenceable(16) %4, ptr noundef nonnull align 8 dereferenceable(16) %5, i8 noundef zeroext 0)
  call void @llvm.lifetime.end.p0(i64 16, ptr nonnull %5) #25
  call void @llvm.lifetime.end.p0(i64 16, ptr nonnull %4) #25
  br label %20

11:                                               ; preds = %3
  %12 = tail call noundef nonnull align 8 dereferenceable(849) ptr @_ZN7rocksdb19GetImmutableOptionsEPNS_18ColumnFamilyHandleE(ptr noundef nonnull %1)
  %13 = getelementptr inbounds nuw i8, ptr %12, i64 632
  %14 = load ptr, ptr %13, align 8, !tbaa !217
  %.not6 = icmp eq ptr %14, null
  br i1 %.not6, label %15, label %18

15:                                               ; preds = %11
  call void @llvm.lifetime.start.p0(i64 16, ptr nonnull %6) #25
  store ptr @.str.48, ptr %6, align 8, !tbaa !104
  %16 = getelementptr inbounds nuw i8, ptr %6, i64 8
  store i64 44, ptr %16, align 8, !tbaa !144
  call void @llvm.lifetime.start.p0(i64 16, ptr nonnull %7) #25
  store ptr @.str, ptr %7, align 8, !tbaa !104
  %17 = getelementptr inbounds nuw i8, ptr %7, i64 8
  store i64 0, ptr %17, align 8, !tbaa !144
  call void @_ZN7rocksdb6StatusC2ENS0_4CodeENS0_7SubCodeERKNS_5SliceES5_NS0_8SeverityE(ptr noundef nonnull align 8 dereferenceable(16) %0, i8 noundef zeroext 4, i8 noundef zeroext 0, ptr noundef nonnull align 8 dereferenceable(16) %6, ptr noundef nonnull align 8 dereferenceable(16) %7, i8 noundef zeroext 0)
  call void @llvm.lifetime.end.p0(i64 16, ptr nonnull %7) #25
  call void @llvm.lifetime.end.p0(i64 16, ptr nonnull %6) #25
  br label %20

18:                                               ; preds = %11
  store ptr %12, ptr %2, align 8, !tbaa !338
  %19 = getelementptr inbounds nuw i8, ptr %0, i64 8
  store ptr null, ptr %19, align 8, !tbaa !94, !alias.scope !340
  tail call void @llvm.memset.p0.i64(ptr noundef nonnull align 8 dereferenceable(16) %0, i8 0, i64 6, i1 false), !alias.scope !340
  br label %20

20:                                               ; preds = %15, %18, %8
  ret void
}